Certificate:
    Data:
        Version: 3 (0x2)
        Serial Number: 1 (0x1)
        Signature Algorithm: sha512WithRSAEncryption
        Issuer: C=US, ST=CA, O=Open vSwitch, OU=switchca, CN=OVS switchca CA Certificate (2020 Apr 14 03:42:08)
        Validity
            Not Before: Apr 14 07:42:08 2020 GMT
            Not After : Apr 12 07:42:08 2030 GMT
        Subject: C=US, ST=CA, O=Open vSwitch, OU=switchca, CN=OVS switchca CA Certificate (2020 Apr 14 03:42:08)
        Subject Public Key Info:
            Public Key Algorithm: rsaEncryption
                RSA Public-Key: (2048 bit)
                Modulus:
                    00:f0:06:da:12:27:d0:87:81:5d:19:04:7a:ad:8f:
                    25:8a:78:7a:d7:c9:16:f5:4c:e2:8a:0a:66:8e:69:
                    30:20:de:69:cb:90:b6:c8:d4:29:68:94:39:4d:98:
                    11:5f:8f:5a:14:49:49:48:77:f7:05:90:60:61:20:
                    3c:7e:a5:7e:df:74:4f:ba:f0:41:ad:f6:6d:53:85:
                    be:07:88:86:ba:d8:ea:4b:ad:ae:84:c2:59:bf:17:
                    a8:1c:a0:79:73:25:b8:b9:bb:8c:c4:09:78:0f:1e:
                    93:e6:cd:a5:b4:ff:f3:75:de:cd:29:8e:ef:92:07:
                    58:59:ab:8f:00:69:5c:58:fa:ec:9f:02:93:96:57:
                    51:e6:e6:78:bd:a5:4d:52:5a:4c:65:39:c6:53:f8:
                    00:c8:90:4c:b3:54:c3:26:a5:fc:2b:c6:5f:33:e9:
                    cf:40:c3:43:c1:72:92:0a:96:2e:51:d5:69:12:4c:
                    69:51:0d:e2:37:8a:e3:ef:bb:76:96:8f:a7:66:0e:
                    fd:bb:fd:5d:36:04:bd:41:47:60:33:d4:51:6d:77:
                    41:03:59:06:28:90:a3:ae:73:b2:49:af:b9:88:79:
                    46:5e:57:3d:ef:f3:e6:ea:05:bc:1d:db:cd:2c:b5:
                    84:83:9a:67:97:dc:82:a3:eb:fa:ae:8e:7b:62:ec:
                    b3:fd
                Exponent: 65537 (0x10001)
        X509v3 extensions:
            X509v3 Basic Constraints: 
                CA:TRUE
    Signature Algorithm: sha512WithRSAEncryption
         61:50:77:7b:73:b1:aa:c1:6c:e5:65:f3:30:e2:b8:70:45:6b:
         ba:de:0e:77:34:9b:b7:18:c5:81:62:16:d3:1e:27:a2:d7:8f:
         e4:21:3a:b7:a6:b2:33:83:58:f0:83:cb:04:a6:b3:74:65:38:
         f9:87:b7:03:1f:2a:e0:fb:a3:c8:2b:dd:37:26:85:b0:62:10:
         e6:e3:fe:42:f6:97:64:bd:ab:0a:cc:ed:ef:f0:7a:21:85:30:
         f7:24:16:59:14:4b:2b:ec:d8:88:84:8a:c3:e0:77:e7:53:76:
         c0:9f:c1:d0:9f:c9:79:8d:14:24:a9:33:14:38:88:81:3e:15:
         88:00:31:ae:c6:14:72:11:68:22:d9:a0:36:36:c8:d9:5b:d7:
         78:f5:b5:10:00:fa:34:e5:a6:a9:35:04:e0:fd:3a:16:ee:34:
         d7:21:1c:1d:fa:3b:af:50:fb:a0:6f:0d:6c:e4:23:5c:00:dc:
         b0:59:fc:89:de:26:f3:2a:0d:36:fd:59:95:c8:10:13:59:44:
         70:90:f2:50:5a:d3:e2:43:a3:cc:48:1c:e5:c9:8c:87:ac:7e:
         aa:03:6a:0e:e0:40:e3:23:ea:da:88:6a:7b:5c:4c:24:66:5c:
         43:a2:14:54:5a:3f:38:29:38:93:b4:8e:54:e1:b9:08:94:f1:
         5d:a1:41:18
-----BEGIN CERTIFICATE-----
MIIDjzCCAnegAwIBAgIBATANBgkqhkiG9w0BAQ0FADCBgTELMAkGA1UEBhMCVVMx
CzAJBgNVBAgMAkNBMRUwEwYDVQQKDAxPcGVuIHZTd2l0Y2gxETAPBgNVBAsMCHN3
aXRjaGNhMTswOQYDVQQDDDJPVlMgc3dpdGNoY2EgQ0EgQ2VydGlmaWNhdGUgKDIw
MjAgQXByIDE0IDAzOjQyOjA4KTAeFw0yMDA0MTQwNzQyMDhaFw0zMDA0MTIwNzQy
MDhaMIGBMQswCQYDVQQGEwJVUzELMAkGA1UECAwCQ0ExFTATBgNVBAoMDE9wZW4g
dlN3aXRjaDERMA8GA1UECwwIc3dpdGNoY2ExOzA5BgNVBAMMMk9WUyBzd2l0Y2hj
YSBDQSBDZXJ0aWZpY2F0ZSAoMjAyMCBBcHIgMTQgMDM6NDI6MDgpMIIBIjANBgkq
hkiG9w0BAQEFAAOCAQ8AMIIBCgKCAQEA8AbaEifQh4FdGQR6rY8linh618kW9Uzi
igpmjmkwIN5py5C2yNQpaJQ5TZgRX49aFElJSHf3BZBgYSA8fqV+33RPuvBBrfZt
U4W+B4iGutjqS62uhMJZvxeoHKB5cyW4ubuMxAl4Dx6T5s2ltP/zdd7NKY7vkgdY
WauPAGlcWPrsnwKTlldR5uZ4vaVNUlpMZTnGU/gAyJBMs1TDJqX8K8ZfM+nPQMND
wXKSCpYuUdVpEkxpUQ3iN4rj77t2lo+nZg79u/1dNgS9QUdgM9RRbXdBA1kGKJCj
rnOySa+5iHlGXlc97/Pm6gW8HdvNLLWEg5pnl9yCo+v6ro57Yuyz/QIDAQABoxAw
DjAMBgNVHRMEBTADAQH/MA0GCSqGSIb3DQEBDQUAA4IBAQBhUHd7c7GqwWzlZfMw
4rhwRWu63g53NJu3GMWBYhbTHiei14/kITq3prIzg1jwg8sEprN0ZTj5h7cDHyrg
+6PIK903JoWwYhDm4/5C9pdkvasKzO3v8HohhTD3JBZZFEsr7NiIhIrD4HfnU3bA
n8HQn8l5jRQkqTMUOIiBPhWIADGuxhRyEWgi2aA2NsjZW9d49bUQAPo05aapNQTg
/ToW7jTXIRwd+juvUPugbw1s5CNcANywWfyJ3ibzKg02/VmVyBATWURwkPJQWtPi
Q6PMSBzlyYyHrH6qA2oO4EDjI+raiGp7XEwkZlxDohRUWj84KTiTtI5U4bkIlPFd
oUEY
-----END CERTIFICATE-----
