Certificate:
    Data:
        Version: 3 (0x2)
        Serial Number: 5 (0x5)
        Signature Algorithm: sha512WithRSAEncryption
        Issuer: C=US, ST=CA, O=Open vSwitch, OU=switchca, CN=OVS switchca CA Certificate (2020 Apr 14 03:42:08)
        Validity
            Not Before: Apr 14 07:42:44 2020 GMT
            Not After : Apr 12 07:42:44 2030 GMT
        Subject: C=US, ST=CA, O=Open vSwitch, OU=Open vSwitch certifier, CN=ovncontroller id:59640360-b04a-45a1-a9c5-031f4e649dca
        Subject Public Key Info:
            Public Key Algorithm: rsaEncryption
                RSA Public-Key: (2048 bit)
                Modulus:
                    00:a4:ff:97:32:86:c8:b8:ab:ab:cc:e7:64:2c:4a:
                    36:f7:2f:6d:01:6f:28:e1:f7:00:29:e4:9b:40:49:
                    27:b5:80:e0:ff:69:2f:4f:e9:87:6e:60:c9:c1:1a:
                    37:99:2c:37:bf:c8:29:51:c3:52:ed:d8:12:e2:8f:
                    61:99:4c:8d:73:a4:10:f5:c3:0f:6d:c5:0b:34:aa:
                    95:9c:77:08:cb:39:a0:41:88:94:bd:8b:ff:85:f6:
                    fb:d6:b4:24:71:8a:24:52:9c:d7:fd:fd:33:dc:4a:
                    7c:d2:12:47:23:5a:9a:29:9e:82:1f:92:20:96:50:
                    ec:0d:ee:b5:85:42:03:1d:b0:2b:1b:c0:94:4c:6e:
                    ea:bd:a9:d1:75:c6:99:2d:7d:3d:e9:55:c7:61:c9:
                    21:af:f2:11:a2:1d:35:95:90:78:65:e0:48:05:f5:
                    5d:c1:d8:17:f9:77:1b:00:b4:5c:c3:19:ec:ba:20:
                    cc:b9:4a:d8:2c:bf:9c:63:a1:30:fe:23:c3:4b:51:
                    79:50:1a:30:57:7f:e3:b6:b7:61:a3:11:8a:6a:92:
                    54:f4:8d:9a:1c:89:58:1f:d0:11:a5:1a:7c:f8:40:
                    09:0d:8f:bb:aa:32:e6:ba:ef:57:28:95:19:b1:91:
                    6a:f9:66:97:6b:42:e3:d3:3f:9a:b0:0d:5a:97:a8:
                    f7:4b
                Exponent: 65537 (0x10001)
        X509v3 extensions:
            X509v3 Basic Constraints: 
                CA:FALSE
            X509v3 Subject Alternative Name: 
                DNS:ovncontroller id:59640360-b04a-45a1-a9c5-031f4e649dca
    Signature Algorithm: sha512WithRSAEncryption
         71:e8:d1:00:cb:01:0f:9f:78:c7:b6:af:34:58:93:4e:b0:25:
         6c:9d:e1:c3:64:0f:47:43:e8:1b:ba:8d:a9:60:31:3b:63:ea:
         f1:43:01:58:69:d1:90:98:cb:83:1c:a0:44:c8:ea:cc:38:db:
         a0:9b:b5:7f:16:2e:6a:fb:09:ae:f0:1b:78:5f:9b:1e:2e:f8:
         b2:a1:b1:40:95:e3:80:d3:7f:c3:0a:b2:fc:7c:a5:5f:18:4f:
         d7:5c:02:95:74:78:4b:f4:db:f6:e3:3b:2c:c8:8e:0c:80:b1:
         1d:d8:0e:b2:1e:51:59:60:dc:a9:c5:c5:f7:cc:af:36:72:d3:
         fd:52:67:e3:dc:be:b7:f4:b5:60:e2:55:ac:d2:ac:8b:4d:43:
         9c:ef:be:d6:04:e6:53:5e:34:05:5f:a8:7b:8b:bf:fb:74:92:
         83:5d:d9:2f:d6:7c:71:d3:82:5b:e1:67:ab:cd:34:0f:ce:da:
         10:a2:58:6f:b1:67:7b:06:9f:31:a1:bf:94:25:63:8a:7e:d0:
         71:32:31:69:5a:70:2b:df:2e:c7:94:3c:9e:c9:44:63:90:7c:
         24:83:8a:67:1a:8a:58:70:47:fc:d0:27:ca:f9:a5:98:4e:22:
         12:c6:03:5d:11:9e:fb:49:ac:69:9c:f1:90:7e:64:1c:6e:59:
         60:c1:93:e4
-----BEGIN CERTIFICATE-----
MIID3zCCAsegAwIBAgIBBTANBgkqhkiG9w0BAQ0FADCBgTELMAkGA1UEBhMCVVMx
CzAJBgNVBAgMAkNBMRUwEwYDVQQKDAxPcGVuIHZTd2l0Y2gxETAPBgNVBAsMCHN3
aXRjaGNhMTswOQYDVQQDDDJPVlMgc3dpdGNoY2EgQ0EgQ2VydGlmaWNhdGUgKDIw
MjAgQXByIDE0IDAzOjQyOjA4KTAeFw0yMDA0MTQwNzQyNDRaFw0zMDA0MTIwNzQy
NDRaMIGSMQswCQYDVQQGEwJVUzELMAkGA1UECAwCQ0ExFTATBgNVBAoMDE9wZW4g
dlN3aXRjaDEfMB0GA1UECwwWT3BlbiB2U3dpdGNoIGNlcnRpZmllcjE+MDwGA1UE
Aww1b3ZuY29udHJvbGxlciBpZDo1OTY0MDM2MC1iMDRhLTQ1YTEtYTljNS0wMzFm
NGU2NDlkY2EwggEiMA0GCSqGSIb3DQEBAQUAA4IBDwAwggEKAoIBAQCk/5cyhsi4
q6vM52QsSjb3L20Bbyjh9wAp5JtASSe1gOD/aS9P6YduYMnBGjeZLDe/yClRw1Lt
2BLij2GZTI1zpBD1ww9txQs0qpWcdwjLOaBBiJS9i/+F9vvWtCRxiiRSnNf9/TPc
SnzSEkcjWpopnoIfkiCWUOwN7rWFQgMdsCsbwJRMbuq9qdF1xpktfT3pVcdhySGv
8hGiHTWVkHhl4EgF9V3B2Bf5dxsAtFzDGey6IMy5Stgsv5xjoTD+I8NLUXlQGjBX
f+O2t2GjEYpqklT0jZociVgf0BGlGnz4QAkNj7uqMua671colRmxkWr5ZpdrQuPT
P5qwDVqXqPdLAgMBAAGjTzBNMAkGA1UdEwQCMAAwQAYDVR0RBDkwN4I1b3ZuY29u
dHJvbGxlciBpZDo1OTY0MDM2MC1iMDRhLTQ1YTEtYTljNS0wMzFmNGU2NDlkY2Ew
DQYJKoZIhvcNAQENBQADggEBAHHo0QDLAQ+feMe2rzRYk06wJWyd4cNkD0dD6Bu6
jalgMTtj6vFDAVhp0ZCYy4McoETI6sw426CbtX8WLmr7Ca7wG3hfmx4u+LKhsUCV
44DTf8MKsvx8pV8YT9dcApV0eEv02/bjOyzIjgyAsR3YDrIeUVlg3KnFxffMrzZy
0/1SZ+Pcvrf0tWDiVazSrItNQ5zvvtYE5lNeNAVfqHuLv/t0koNd2S/WfHHTglvh
Z6vNNA/O2hCiWG+xZ3sGnzGhv5QlY4p+0HEyMWlacCvfLseUPJ7JRGOQfCSDimca
ilhwR/zQJ8r5pZhOIhLGA10RnvtJrGmc8ZB+ZBxuWWDBk+Q=
-----END CERTIFICATE-----
