Certificate:
    Data:
        Version: 3 (0x2)
        Serial Number: 2 (0x2)
        Signature Algorithm: sha512WithRSAEncryption
        Issuer: C=US, ST=CA, O=Open vSwitch, OU=switchca, CN=OVS switchca CA Certificate (2020 Apr 14 03:42:08)
        Validity
            Not Before: Apr 14 07:42:41 2020 GMT
            Not After : Apr 12 07:42:41 2030 GMT
        Subject: C=US, ST=CA, O=Open vSwitch, OU=Open vSwitch certifier, CN=ovnnb id:ff93aaea-616d-494d-a9e9-a1da6ced39b2
        Subject Public Key Info:
            Public Key Algorithm: rsaEncryption
                RSA Public-Key: (2048 bit)
                Modulus:
                    00:9d:c2:17:23:cd:d1:fa:09:f1:7e:7d:d1:75:74:
                    8b:3c:a6:ea:a6:6a:17:5c:3b:f4:31:3a:1d:9f:d5:
                    0f:82:ac:b3:42:48:d5:d7:98:5b:d4:b5:e2:bd:ad:
                    b1:ac:02:19:67:b5:8e:89:0d:4d:0f:90:37:47:cb:
                    1d:e3:1a:34:44:f1:ee:72:ab:89:6e:03:c9:77:59:
                    11:66:3e:8a:fc:2c:1d:2a:d4:79:e1:83:8e:85:d1:
                    1a:5d:34:9f:52:8b:45:c2:9d:1f:57:4b:8b:48:65:
                    95:df:cf:69:bc:32:88:73:6c:60:c6:05:de:4c:d8:
                    53:38:2b:37:1f:c4:ac:3f:c8:e8:a3:22:d3:d8:bd:
                    aa:af:98:38:ff:48:98:b2:11:d7:f3:0c:cf:ec:c3:
                    82:ed:05:6e:64:fb:e7:aa:3f:a9:ab:a7:56:0f:44:
                    40:6e:d4:d2:2c:6d:56:33:fc:d3:89:31:c3:cc:e9:
                    b3:12:2a:ff:a2:da:f1:c0:96:19:e2:d6:e7:8c:38:
                    22:2e:93:5e:cf:ee:2e:da:90:9b:50:a8:8a:02:b7:
                    41:cf:cd:bc:fc:8d:62:08:2e:d8:d9:ed:c1:62:47:
                    33:c7:3a:c2:71:4a:2d:d9:0c:73:4f:ee:b6:7e:24:
                    07:75:79:d9:24:3f:77:40:f3:00:59:da:37:d3:ed:
                    64:35
                Exponent: 65537 (0x10001)
        X509v3 extensions:
            X509v3 Basic Constraints: 
                CA:FALSE
            X509v3 Subject Alternative Name: 
                DNS:ovnnb id:ff93aaea-616d-494d-a9e9-a1da6ced39b2
    Signature Algorithm: sha512WithRSAEncryption
         1a:77:b9:fe:44:64:99:43:51:4c:06:41:5f:01:9e:a8:9b:9d:
         3e:a8:5c:71:01:25:e3:62:e4:c7:2f:81:b6:98:1c:fe:d6:bd:
         04:3e:df:34:f8:8a:0d:2d:a3:72:2b:71:69:c7:8a:d5:7d:89:
         59:cd:dd:94:83:9c:09:80:7c:d3:9c:45:c3:e5:79:b6:14:c4:
         f4:ba:75:0d:84:21:dd:10:dd:cc:a2:af:7c:42:f3:74:91:33:
         a9:11:8b:7f:84:97:1e:2b:bb:71:47:5b:7e:ce:3a:2f:51:7d:
         8c:0a:7b:1d:22:93:f7:c1:12:4f:fe:e4:2d:12:3d:ff:47:9e:
         9f:74:7e:f1:38:1e:c4:f8:aa:dd:9f:ef:ca:93:23:f3:bb:13:
         cf:ed:a9:22:1d:95:3e:80:25:af:15:85:f2:2f:14:9c:3c:25:
         b0:88:23:4f:ef:c2:03:6a:ef:6e:39:f1:f6:f7:25:6c:b5:07:
         8d:9c:4b:b3:b9:47:c1:60:a4:0a:a8:21:69:ba:df:9a:e7:36:
         64:a7:60:8a:c8:66:df:92:c3:ec:ec:71:d6:ab:39:eb:92:56:
         bf:94:38:1f:32:b4:de:92:7c:82:01:13:8d:28:a9:48:e5:a5:
         46:77:e5:88:75:fc:ca:83:93:e6:f9:51:57:31:db:96:10:75:
         3d:08:a7:2d
-----BEGIN CERTIFICATE-----
MIIDzzCCAregAwIBAgIBAjANBgkqhkiG9w0BAQ0FADCBgTELMAkGA1UEBhMCVVMx
CzAJBgNVBAgMAkNBMRUwEwYDVQQKDAxPcGVuIHZTd2l0Y2gxETAPBgNVBAsMCHN3
aXRjaGNhMTswOQYDVQQDDDJPVlMgc3dpdGNoY2EgQ0EgQ2VydGlmaWNhdGUgKDIw
MjAgQXByIDE0IDAzOjQyOjA4KTAeFw0yMDA0MTQwNzQyNDFaFw0zMDA0MTIwNzQy
NDFaMIGKMQswCQYDVQQGEwJVUzELMAkGA1UECAwCQ0ExFTATBgNVBAoMDE9wZW4g
dlN3aXRjaDEfMB0GA1UECwwWT3BlbiB2U3dpdGNoIGNlcnRpZmllcjE2MDQGA1UE
Awwtb3ZubmIgaWQ6ZmY5M2FhZWEtNjE2ZC00OTRkLWE5ZTktYTFkYTZjZWQzOWIy
MIIBIjANBgkqhkiG9w0BAQEFAAOCAQ8AMIIBCgKCAQEAncIXI83R+gnxfn3RdXSL
PKbqpmoXXDv0MTodn9UPgqyzQkjV15hb1LXiva2xrAIZZ7WOiQ1ND5A3R8sd4xo0
RPHucquJbgPJd1kRZj6K/CwdKtR54YOOhdEaXTSfUotFwp0fV0uLSGWV389pvDKI
c2xgxgXeTNhTOCs3H8SsP8jooyLT2L2qr5g4/0iYshHX8wzP7MOC7QVuZPvnqj+p
q6dWD0RAbtTSLG1WM/zTiTHDzOmzEir/otrxwJYZ4tbnjDgiLpNez+4u2pCbUKiK
ArdBz828/I1iCC7Y2e3BYkczxzrCcUot2QxzT+62fiQHdXnZJD93QPMAWdo30+1k
NQIDAQABo0cwRTAJBgNVHRMEAjAAMDgGA1UdEQQxMC+CLW92bm5iIGlkOmZmOTNh
YWVhLTYxNmQtNDk0ZC1hOWU5LWExZGE2Y2VkMzliMjANBgkqhkiG9w0BAQ0FAAOC
AQEAGne5/kRkmUNRTAZBXwGeqJudPqhccQEl42Lkxy+Btpgc/ta9BD7fNPiKDS2j
citxaceK1X2JWc3dlIOcCYB805xFw+V5thTE9Lp1DYQh3RDdzKKvfELzdJEzqRGL
f4SXHiu7cUdbfs46L1F9jAp7HSKT98EST/7kLRI9/0een3R+8TgexPiq3Z/vypMj
87sTz+2pIh2VPoAlrxWF8i8UnDwlsIgjT+/CA2rvbjnx9vclbLUHjZxLs7lHwWCk
Cqghabrfmuc2ZKdgishm35LD7Oxx1qs565JWv5Q4HzK03pJ8ggETjSipSOWlRnfl
iHX8yoOT5vlRVzHblhB1PQinLQ==
-----END CERTIFICATE-----
