Certificate:
    Data:
        Version: 3 (0x2)
        Serial Number: 4 (0x4)
        Signature Algorithm: sha512WithRSAEncryption
        Issuer: C=US, ST=CA, O=Open vSwitch, OU=switchca, CN=OVS switchca CA Certificate (2020 Apr 14 03:42:08)
        Validity
            Not Before: Apr 14 07:42:41 2020 GMT
            Not After : Apr 12 07:42:41 2030 GMT
        Subject: C=US, ST=CA, O=Open vSwitch, OU=Open vSwitch certifier, CN=ovnnorthd id:103ca28d-7f38-443b-9c16-e22bb1c9d6fa
        Subject Public Key Info:
            Public Key Algorithm: rsaEncryption
                RSA Public-Key: (2048 bit)
                Modulus:
                    00:df:e4:19:31:bc:ef:e3:0a:33:26:42:16:57:f8:
                    e5:d2:f4:07:17:3e:3a:6d:5c:e9:ea:16:d3:e1:1f:
                    f2:df:dd:fb:14:d0:f7:4c:75:72:5e:e4:39:b3:af:
                    05:4e:30:31:89:27:33:a8:7b:18:88:d7:b9:bf:7b:
                    83:a1:50:4b:55:63:1a:ad:57:cb:23:0d:43:35:ce:
                    97:39:7f:b0:e6:ce:30:cf:63:b4:f3:a7:61:52:6a:
                    21:15:cf:e6:0f:5c:84:5f:d0:f4:e9:b4:dc:4b:38:
                    9f:71:ae:00:f2:61:e3:61:49:d9:2f:b9:7e:e8:85:
                    c8:95:43:36:8c:0b:5c:8f:4d:9c:a4:b7:1e:f9:cf:
                    d6:9b:a6:ed:ca:a1:7e:4f:2b:1f:7e:9b:25:3b:c2:
                    20:90:3d:1e:88:41:f7:93:2a:f8:4d:ab:5c:78:e8:
                    dd:a1:d5:18:b7:15:ca:ef:f0:86:39:4e:4f:49:52:
                    38:3a:2b:4c:82:8e:2f:71:69:ad:a3:f8:c7:1c:da:
                    4a:93:52:84:7a:a0:4a:95:21:dd:39:32:e6:68:c6:
                    55:4e:c1:77:83:34:c3:3b:83:db:c1:21:e9:1a:1d:
                    53:c8:a2:26:c1:44:98:42:44:20:71:b0:75:11:e5:
                    79:d6:f8:fc:10:4a:81:e3:0b:cd:8d:13:de:d1:85:
                    83:a7
                Exponent: 65537 (0x10001)
        X509v3 extensions:
            X509v3 Basic Constraints: 
                CA:FALSE
            X509v3 Subject Alternative Name: 
                DNS:ovnnorthd id:103ca28d-7f38-443b-9c16-e22bb1c9d6fa
    Signature Algorithm: sha512WithRSAEncryption
         54:70:a5:03:26:c3:43:70:1e:a2:03:80:d1:ce:6e:83:f0:76:
         3e:ee:44:f0:62:af:16:57:09:4b:bc:f7:24:93:eb:33:5c:aa:
         3f:68:e5:6c:75:a5:9c:fb:ca:4d:7e:c1:a2:bb:1e:d8:d3:b5:
         4d:76:15:63:a7:7d:b0:57:e0:3d:ca:ce:d0:9e:c3:13:1c:3e:
         ca:6c:ca:df:8c:07:3f:2a:8b:e2:f8:ca:61:2a:d6:df:8a:e8:
         7a:94:49:ac:c7:6c:85:39:6f:18:5e:8c:b3:c8:ec:be:3d:e8:
         f8:25:eb:60:c0:93:47:26:44:10:75:ae:8c:ff:4e:59:5e:92:
         45:80:38:b7:f7:a5:f0:67:8f:9b:19:6f:c0:56:1d:14:b0:96:
         cc:51:11:a0:ba:65:55:35:74:30:89:48:fd:57:a4:d2:b8:a9:
         78:e9:61:2e:d2:c0:44:e5:d4:29:60:94:7a:09:3c:a5:58:3d:
         45:92:a1:a5:54:4f:65:a8:80:20:27:ee:36:1a:82:4b:69:55:
         31:bc:67:28:b6:e9:8e:51:e1:52:48:8a:1f:64:d4:f4:88:64:
         dd:d7:d2:05:85:92:47:2b:a1:d0:63:ab:41:89:ad:73:bd:b7:
         42:3c:e8:88:7d:25:69:f3:ab:d7:5d:31:74:89:77:46:e1:09:
         75:dd:6f:8e
-----BEGIN CERTIFICATE-----
MIID1zCCAr+gAwIBAgIBBDANBgkqhkiG9w0BAQ0FADCBgTELMAkGA1UEBhMCVVMx
CzAJBgNVBAgMAkNBMRUwEwYDVQQKDAxPcGVuIHZTd2l0Y2gxETAPBgNVBAsMCHN3
aXRjaGNhMTswOQYDVQQDDDJPVlMgc3dpdGNoY2EgQ0EgQ2VydGlmaWNhdGUgKDIw
MjAgQXByIDE0IDAzOjQyOjA4KTAeFw0yMDA0MTQwNzQyNDFaFw0zMDA0MTIwNzQy
NDFaMIGOMQswCQYDVQQGEwJVUzELMAkGA1UECAwCQ0ExFTATBgNVBAoMDE9wZW4g
dlN3aXRjaDEfMB0GA1UECwwWT3BlbiB2U3dpdGNoIGNlcnRpZmllcjE6MDgGA1UE
Awwxb3Zubm9ydGhkIGlkOjEwM2NhMjhkLTdmMzgtNDQzYi05YzE2LWUyMmJiMWM5
ZDZmYTCCASIwDQYJKoZIhvcNAQEBBQADggEPADCCAQoCggEBAN/kGTG87+MKMyZC
Flf45dL0Bxc+Om1c6eoW0+Ef8t/d+xTQ90x1cl7kObOvBU4wMYknM6h7GIjXub97
g6FQS1VjGq1XyyMNQzXOlzl/sObOMM9jtPOnYVJqIRXP5g9chF/Q9Om03Es4n3Gu
APJh42FJ2S+5fuiFyJVDNowLXI9NnKS3HvnP1pum7cqhfk8rH36bJTvCIJA9HohB
95Mq+E2rXHjo3aHVGLcVyu/whjlOT0lSODorTIKOL3FpraP4xxzaSpNShHqgSpUh
3Tky5mjGVU7Bd4M0wzuD28Eh6RodU8iiJsFEmEJEIHGwdRHledb4/BBKgeMLzY0T
3tGFg6cCAwEAAaNLMEkwCQYDVR0TBAIwADA8BgNVHREENTAzgjFvdm5ub3J0aGQg
aWQ6MTAzY2EyOGQtN2YzOC00NDNiLTljMTYtZTIyYmIxYzlkNmZhMA0GCSqGSIb3
DQEBDQUAA4IBAQBUcKUDJsNDcB6iA4DRzm6D8HY+7kTwYq8WVwlLvPckk+szXKo/
aOVsdaWc+8pNfsGiux7Y07VNdhVjp32wV+A9ys7QnsMTHD7KbMrfjAc/Kovi+Mph
Ktbfiuh6lEmsx2yFOW8YXoyzyOy+Pej4JetgwJNHJkQQda6M/05ZXpJFgDi396Xw
Z4+bGW/AVh0UsJbMURGgumVVNXQwiUj9V6TSuKl46WEu0sBE5dQpYJR6CTylWD1F
kqGlVE9lqIAgJ+42GoJLaVUxvGcotumOUeFSSIofZNT0iGTd19IFhZJHK6HQY6tB
ia1zvbdCPOiIfSVp86vXXTF0iXdG4Ql13W+O
-----END CERTIFICATE-----
