Certificate:
    Data:
        Version: 3 (0x2)
        Serial Number: 3 (0x3)
        Signature Algorithm: sha512WithRSAEncryption
        Issuer: C=US, ST=CA, O=Open vSwitch, OU=switchca, CN=OVS switchca CA Certificate (2020 Apr 14 03:42:08)
        Validity
            Not Before: Apr 14 07:42:41 2020 GMT
            Not After : Apr 12 07:42:41 2030 GMT
        Subject: C=US, ST=CA, O=Open vSwitch, OU=Open vSwitch certifier, CN=ovnsb id:280f533c-1f6c-42f4-b715-e6c4b504a135
        Subject Public Key Info:
            Public Key Algorithm: rsaEncryption
                RSA Public-Key: (2048 bit)
                Modulus:
                    00:c7:dd:6c:c0:40:d9:d7:3d:14:03:d7:b5:03:47:
                    42:be:19:6c:00:04:66:27:91:79:6e:b7:1c:dd:1b:
                    cb:de:7e:b8:53:fc:7b:10:4a:25:e5:c8:56:fc:1f:
                    5f:37:78:04:1a:b1:12:22:3e:0c:f9:e7:de:7f:65:
                    52:e5:da:cf:4f:e2:6a:3e:a1:8b:66:31:c6:e7:72:
                    3d:32:53:2d:2f:e2:40:22:52:c4:d7:2c:5b:92:79:
                    41:eb:35:c7:ef:ba:a4:e2:30:38:7d:7e:c9:47:4e:
                    d8:69:ff:63:76:7f:84:f0:a6:09:3a:42:e5:fa:34:
                    57:d1:75:43:c4:97:bb:35:59:39:01:f4:3a:aa:98:
                    f2:81:b3:a5:ae:58:f5:b2:f8:ff:eb:c6:2f:b0:a2:
                    37:65:5e:89:bd:be:8b:55:9d:1f:d8:8d:b8:fa:e2:
                    9c:a3:d3:8d:2a:50:b2:9f:8b:7f:b9:23:c7:97:d1:
                    ab:ca:d3:21:71:67:ac:07:a6:a1:46:6b:ac:76:28:
                    1b:7a:cf:53:eb:2f:a7:99:2a:07:f7:05:4f:64:0b:
                    97:36:f9:fd:80:f4:7b:2a:b4:ff:47:c0:cc:8a:86:
                    e4:77:54:96:07:b4:95:62:c4:76:a6:de:f3:50:4c:
                    3b:12:a5:56:b0:ca:33:c1:95:95:be:8e:38:1b:a1:
                    18:19
                Exponent: 65537 (0x10001)
        X509v3 extensions:
            X509v3 Basic Constraints: 
                CA:FALSE
            X509v3 Subject Alternative Name: 
                DNS:ovnsb id:280f533c-1f6c-42f4-b715-e6c4b504a135
    Signature Algorithm: sha512WithRSAEncryption
         ad:12:c7:02:a1:ad:62:bd:2f:f3:e1:c9:2f:b6:9f:c4:8b:44:
         c3:ca:c4:f2:b0:92:01:96:9b:04:bb:ec:ee:28:96:1e:0e:1c:
         87:20:3e:ab:66:32:35:fe:63:e3:d3:42:b3:5f:e2:1c:66:46:
         e8:81:6a:f3:5f:ae:46:73:dc:8e:5f:7a:62:16:f7:ab:20:ee:
         83:38:29:29:df:54:13:b6:6f:18:ba:cc:93:42:bb:0b:f1:bd:
         8c:ce:ae:08:99:bd:04:bd:6b:84:02:41:5b:96:35:f0:a9:77:
         6b:cf:57:46:af:5e:26:4f:88:ba:2b:5e:cc:c1:30:92:3d:e8:
         c9:d1:6e:6d:c4:ce:8f:c8:1f:41:f5:c3:65:c5:78:09:b0:91:
         7c:c3:d8:5f:6c:cb:89:97:3a:60:df:b9:d4:9b:ba:61:f4:eb:
         cd:64:55:53:2e:e1:b4:35:20:cb:d8:13:fb:32:6b:b5:a2:d8:
         44:b1:7a:a1:81:3c:77:f2:e8:17:1b:de:f3:26:a2:c3:24:5f:
         9e:98:02:0c:4c:16:9b:05:c5:14:c6:d1:06:e3:77:be:c5:3e:
         07:72:7d:25:dd:e9:84:f5:af:fb:be:d5:14:8d:ed:ff:22:20:
         f0:d2:41:80:31:c1:99:f4:f4:4a:c1:7b:e5:54:64:ff:14:14:
         0f:38:fe:5e
-----BEGIN CERTIFICATE-----
MIIDzzCCAregAwIBAgIBAzANBgkqhkiG9w0BAQ0FADCBgTELMAkGA1UEBhMCVVMx
CzAJBgNVBAgMAkNBMRUwEwYDVQQKDAxPcGVuIHZTd2l0Y2gxETAPBgNVBAsMCHN3
aXRjaGNhMTswOQYDVQQDDDJPVlMgc3dpdGNoY2EgQ0EgQ2VydGlmaWNhdGUgKDIw
MjAgQXByIDE0IDAzOjQyOjA4KTAeFw0yMDA0MTQwNzQyNDFaFw0zMDA0MTIwNzQy
NDFaMIGKMQswCQYDVQQGEwJVUzELMAkGA1UECAwCQ0ExFTATBgNVBAoMDE9wZW4g
dlN3aXRjaDEfMB0GA1UECwwWT3BlbiB2U3dpdGNoIGNlcnRpZmllcjE2MDQGA1UE
Awwtb3Zuc2IgaWQ6MjgwZjUzM2MtMWY2Yy00MmY0LWI3MTUtZTZjNGI1MDRhMTM1
MIIBIjANBgkqhkiG9w0BAQEFAAOCAQ8AMIIBCgKCAQEAx91swEDZ1z0UA9e1A0dC
vhlsAARmJ5F5brcc3RvL3n64U/x7EEol5chW/B9fN3gEGrESIj4M+efef2VS5drP
T+JqPqGLZjHG53I9MlMtL+JAIlLE1yxbknlB6zXH77qk4jA4fX7JR07Yaf9jdn+E
8KYJOkLl+jRX0XVDxJe7NVk5AfQ6qpjygbOlrlj1svj/68YvsKI3ZV6Jvb6LVZ0f
2I24+uKco9ONKlCyn4t/uSPHl9GrytMhcWesB6ahRmusdigbes9T6y+nmSoH9wVP
ZAuXNvn9gPR7KrT/R8DMiobkd1SWB7SVYsR2pt7zUEw7EqVWsMozwZWVvo44G6EY
GQIDAQABo0cwRTAJBgNVHRMEAjAAMDgGA1UdEQQxMC+CLW92bnNiIGlkOjI4MGY1
MzNjLTFmNmMtNDJmNC1iNzE1LWU2YzRiNTA0YTEzNTANBgkqhkiG9w0BAQ0FAAOC
AQEArRLHAqGtYr0v8+HJL7afxItEw8rE8rCSAZabBLvs7iiWHg4chyA+q2YyNf5j
49NCs1/iHGZG6IFq81+uRnPcjl96Yhb3qyDugzgpKd9UE7ZvGLrMk0K7C/G9jM6u
CJm9BL1rhAJBW5Y18Kl3a89XRq9eJk+IuitezMEwkj3oydFubcTOj8gfQfXDZcV4
CbCRfMPYX2zLiZc6YN+51Ju6YfTrzWRVUy7htDUgy9gT+zJrtaLYRLF6oYE8d/Lo
Fxve8yaiwyRfnpgCDEwWmwXFFMbRBuN3vsU+B3J9Jd3phPWv+77VFI3t/yIg8NJB
gDHBmfT0SsF75VRk/xQUDzj+Xg==
-----END CERTIFICATE-----
